; Function Attrs: null_pointer_is_valid sspstrong uwtable
define internal i32 @dissect_cbcp_callback_admin_opt(ptr noundef %0, ptr noundef %1, ptr noundef %2, ptr readnone captures(none) %3) #1 {
  %5 = load i32, ptr @proto_cbcp_option_callback_admin, align 4
  %6 = tail call i32 @tvb_reported_length(ptr noundef %0)
  %.not.i = icmp eq i32 %6, 4
  br i1 %.not.i, label %14, label %7

7:                                                ; preds = %4
  %8 = tail call ptr @find_protocol_by_id(i32 noundef %5)
  %9 = tail call ptr @proto_get_protocol_short_name(ptr noundef %8)
  %10 = icmp eq i32 %6, 1
  %11 = select i1 %10, ptr @.str.1006, ptr @.str.1007
  %12 = tail call ptr (ptr, ptr, ptr, ptr, i32, i32, ptr, ...) @proto_tree_add_expert_format(ptr noundef %2, ptr noundef %1, ptr noundef nonnull @ei_ppp_opt_len_invalid, ptr noundef %0, i32 noundef 0, i32 noundef %6, ptr noundef nonnull @.str.1318, ptr noundef %9, i32 noundef %6, ptr noundef nonnull %11, i32 noundef 4)
  %13 = tail call i32 @tvb_captured_length(ptr noundef %0)
  br label %29

14:                                               ; preds = %4
  %15 = load i32, ptr @proto_cbcp_option_callback_admin, align 4
  %16 = tail call ptr @proto_tree_add_item(ptr noundef %2, i32 noundef %15, ptr noundef %0, i32 noundef 0, i32 noundef -1, i32 noundef 0)
  %17 = load i32, ptr @ett_cbcp_callback_admin, align 4
  %18 = tail call ptr @proto_item_add_subtree(ptr noundef %16, i32 noundef %17)
  %19 = load i32, ptr @proto_cbcp_option_callback_admin, align 4
  %20 = tail call ptr @proto_registrar_get_name(i32 noundef %19)
  %21 = tail call zeroext i8 @tvb_get_uint8(ptr noundef %0, i32 noundef 0)
  %22 = load i32, ptr @hf_cbcp_opt_type, align 4
  %23 = zext i8 %21 to i32
  %24 = tail call ptr (ptr, i32, ptr, i32, i32, i32, ptr, ...) @proto_tree_add_uint_format_value(ptr noundef %18, i32 noundef %22, ptr noundef %0, i32 noundef 0, i32 noundef 1, i32 noundef %23, ptr noundef nonnull @.str.1295, ptr noundef %20, i32 noundef %23)
  %25 = load i32, ptr @hf_cbcp_opt_length, align 4
  %26 = tail call ptr @proto_tree_add_item(ptr noundef %18, i32 noundef %25, ptr noundef %0, i32 noundef 1, i32 noundef 1, i32 noundef 0)
  %27 = tail call i32 @tvb_reported_length(ptr noundef %0)
  %28 = tail call fastcc i32 @dissect_cbcp_callback_opt_common(ptr noundef %0, ptr noundef %1, ptr noundef %2, i32 noundef %27)
  br label %29

29:                                               ; preds = %14, %7
  %.0 = phi i32 [ %28, %14 ], [ %13, %7 ]
  ret i32 %.0
}